; Function Attrs: mustprogress uwtable
define hidden noundef zeroext i1 @_ZNK4cvc58internal3smt11SetDefaults19usesInputConversionERKNS0_7OptionsERSo(ptr nocapture noundef nonnull readnone align 8 dereferenceable(17) %this, ptr nocapture noundef nonnull readonly align 8 dereferenceable(392) %opts, ptr noundef nonnull align 8 dereferenceable(8) %reason) local_unnamed_addr #3 align 2 {
entry:
  %smt = getelementptr inbounds i8, ptr %opts, i64 352
  %0 = load ptr, ptr %smt, align 8
  %solveBVAsInt = getelementptr inbounds i8, ptr %0, i64 140
  %1 = load i32, ptr %solveBVAsInt, align 4
  %cmp.not = icmp eq i32 %1, 0
  br i1 %cmp.not, label %if.end, label %return.sink.split

if.end:                                           ; preds = %entry
  %solveIntAsBV = getelementptr inbounds i8, ptr %0, i64 152
  %2 = load i64, ptr %solveIntAsBV, align 8
  %cmp3.not = icmp eq i64 %2, 0
  br i1 %cmp3.not, label %if.end6, label %return.sink.split

if.end6:                                          ; preds = %if.end
  %solveRealAsInt = getelementptr inbounds i8, ptr %0, i64 161
  %3 = load i8, ptr %solveRealAsInt, align 1
  %4 = and i8 %3, 1
  %tobool.not = icmp eq i8 %4, 0
  br i1 %tobool.not, label %return, label %return.sink.split

return.sink.split:                                ; preds = %if.end6, %if.end, %entry
  %.str.118.sink = phi ptr [ @.str.116, %entry ], [ @.str.117, %if.end ], [ @.str.118, %if.end6 ]
  %call9 = tail call noundef nonnull align 8 dereferenceable(8) ptr @_ZStlsISt11char_traitsIcEERSt13basic_ostreamIcT_ES5_PKc(ptr noundef nonnull align 8 dereferenceable(8) %reason, ptr noundef nonnull %.str.118.sink)
  br label %return

return:                                           ; preds = %return.sink.split, %if.end6
  %retval.0 = phi i1 [ false, %if.end6 ], [ true, %return.sink.split ]
  ret i1 %retval.0
}